target datalayout = "e-m:e-p270:32:32-p271:32:32-p272:64:64-i64:64-i128:128-f80:128-n8:16:32:64-S128"
target triple = "x86_64-pc-linux-gnu"

%union.pthread_mutex_t = type { %struct.__pthread_mutex_s }
%struct.__pthread_mutex_s = type { i32, i32, i32, i32, i32, i16, i16, %struct.__pthread_internal_list }
%struct.__pthread_internal_list = type { ptr, ptr }
%struct.pmix_tma = type { ptr, ptr, ptr, ptr, ptr, ptr, ptr, ptr }
%struct.pmix_pointer_array_t = type { %struct.pmix_object_t, i32, i32, i32, i32, i32, ptr, ptr }
%struct.pmix_object_t = type { %union.pthread_mutex_t, ptr, i32, %struct.pmix_tma }
%struct.pmix_mca_base_var_t = type { %struct.pmix_object_t, i32, i32, i32, ptr, ptr, ptr, ptr, %struct.pmix_value_array_t, i32, i32, i32, ptr, ptr, ptr, i32, ptr, ptr }
%struct.pmix_value_array_t = type { %struct.pmix_object_t, ptr, i64, i64, i64 }

@pmix_mca_base_var_initialized = global i8 0, align 1
@pmix_mca_base_vars = internal global %struct.pmix_pointer_array_t zeroinitializer, align 8

; Function Attrs: inlinehint nounwind uwtable
define internal ptr @pmix_pointer_array_get_item(ptr noundef %0, i32 noundef %1) #6 {
  %3 = alloca ptr, align 8
  %4 = alloca ptr, align 8
  %5 = alloca i32, align 4
  %6 = alloca ptr, align 8
  %7 = alloca i32, align 4
  store ptr %0, ptr %4, align 8, !tbaa !90
  store i32 %1, ptr %5, align 4, !tbaa !18
  call void @llvm.lifetime.start.p0(i64 8, ptr %6) #15
  %8 = load i32, ptr %5, align 4, !tbaa !18
  %9 = icmp sgt i32 0, %8
  br i1 %9, label %16, label %10

10:                                               ; preds = %2
  %11 = load ptr, ptr %4, align 8, !tbaa !90
  %12 = getelementptr inbounds nuw %struct.pmix_pointer_array_t, ptr %11, i32 0, i32 3
  %13 = load i32, ptr %12, align 8, !tbaa !92
  %14 = load i32, ptr %5, align 4, !tbaa !18
  %15 = icmp sle i32 %13, %14
  br label %16

16:                                               ; preds = %10, %2
  %17 = phi i1 [ true, %2 ], [ %15, %10 ]
  %18 = xor i1 %17, true
  %19 = xor i1 %18, true
  %20 = zext i1 %19 to i32
  %21 = sext i32 %20 to i64
  %22 = call i64 @llvm.expect.i64(i64 %21, i64 0)
  %23 = icmp ne i64 %22, 0
  br i1 %23, label %24, label %25

24:                                               ; preds = %16
  store ptr null, ptr %3, align 8
  store i32 1, ptr %7, align 4
  br label %34

25:                                               ; preds = %16
  %26 = load ptr, ptr %4, align 8, !tbaa !90
  %27 = getelementptr inbounds nuw %struct.pmix_pointer_array_t, ptr %26, i32 0, i32 7
  %28 = load ptr, ptr %27, align 8, !tbaa !95
  %29 = load i32, ptr %5, align 4, !tbaa !18
  %30 = sext i32 %29 to i64
  %31 = getelementptr inbounds ptr, ptr %28, i64 %30
  %32 = load ptr, ptr %31, align 8, !tbaa !65
  store ptr %32, ptr %6, align 8, !tbaa !65
  %33 = load ptr, ptr %6, align 8, !tbaa !65
  store ptr %33, ptr %3, align 8
  store i32 1, ptr %7, align 4
  br label %34

34:                                               ; preds = %25, %24
  call void @llvm.lifetime.end.p0(i64 8, ptr %6) #15
  %35 = load ptr, ptr %3, align 8
  ret ptr %35
}

; Function Attrs: nounwind uwtable
define internal i32 @var_get(i32 noundef %0, ptr noundef %1, i1 noundef zeroext %2) #0 {
  %4 = alloca i32, align 4
  %5 = alloca i32, align 4
  %6 = alloca ptr, align 8
  %7 = alloca i8, align 1
  %8 = alloca ptr, align 8
  %9 = alloca i32, align 4
  store i32 %0, ptr %5, align 4, !tbaa !18
  store ptr %1, ptr %6, align 8, !tbaa !76
  %10 = zext i1 %2 to i8
  store i8 %10, ptr %7, align 1, !tbaa !54
  call void @llvm.lifetime.start.p0(i64 8, ptr %8) #15
  %11 = load ptr, ptr %6, align 8, !tbaa !76
  %12 = icmp ne ptr %11, null
  br i1 %12, label %13, label %15

13:                                               ; preds = %3
  %14 = load ptr, ptr %6, align 8, !tbaa !76
  store ptr null, ptr %14, align 8, !tbaa !3
  br label %15

15:                                               ; preds = %13, %3
  %16 = load i8, ptr @pmix_mca_base_var_initialized, align 1, !tbaa !54, !range !30, !noundef !31
  %17 = trunc i8 %16 to i1
  br i1 %17, label %19, label %18

18:                                               ; preds = %15
  store i32 -1, ptr %4, align 4
  store i32 1, ptr %9, align 4
  br label %52

19:                                               ; preds = %15
  %20 = load i32, ptr %5, align 4, !tbaa !18
  %21 = icmp slt i32 %20, 0
  br i1 %21, label %22, label %23

22:                                               ; preds = %19
  store i32 -27, ptr %4, align 4
  store i32 1, ptr %9, align 4
  br label %52

23:                                               ; preds = %19
  %24 = load i32, ptr %5, align 4, !tbaa !18
  %25 = call ptr @pmix_pointer_array_get_item(ptr noundef @pmix_mca_base_vars, i32 noundef %24)
  store ptr %25, ptr %8, align 8, !tbaa !3
  %26 = load ptr, ptr %8, align 8, !tbaa !3
  %27 = icmp eq ptr null, %26
  br i1 %27, label %28, label %29

28:                                               ; preds = %23
  store i32 -27, ptr %4, align 4
  store i32 1, ptr %9, align 4
  br label %52

29:                                               ; preds = %23
  %30 = load ptr, ptr %8, align 8, !tbaa !3
  %31 = getelementptr inbounds %struct.pmix_mca_base_var_t, ptr %30, i64 0
  %32 = getelementptr inbounds nuw %struct.pmix_mca_base_var_t, ptr %31, i32 0, i32 9
  %33 = load i32, ptr %32, align 8, !tbaa !71
  %34 = and i32 %33, 131072
  %35 = icmp ne i32 %34, 0
  br i1 %35, label %36, label %45

36:                                               ; preds = %29
  %37 = load i8, ptr %7, align 1, !tbaa !54, !range !30, !noundef !31
  %38 = trunc i8 %37 to i1
  br i1 %38, label %39, label %45

39:                                               ; preds = %36
  %40 = load ptr, ptr %8, align 8, !tbaa !3
  %41 = getelementptr inbounds nuw %struct.pmix_mca_base_var_t, ptr %40, i32 0, i32 11
  %42 = load i32, ptr %41, align 8, !tbaa !78
  %43 = load ptr, ptr %6, align 8, !tbaa !76
  %44 = call i32 @var_get(i32 noundef %42, ptr noundef %43, i1 noundef zeroext false)
  store i32 %44, ptr %4, align 4
  store i32 1, ptr %9, align 4
  br label %52

45:                                               ; preds = %36, %29
  %46 = load ptr, ptr %6, align 8, !tbaa !76
  %47 = icmp ne ptr %46, null
  br i1 %47, label %48, label %51

48:                                               ; preds = %45
  %49 = load ptr, ptr %8, align 8, !tbaa !3
  %50 = load ptr, ptr %6, align 8, !tbaa !76
  store ptr %49, ptr %50, align 8, !tbaa !3
  br label %51

51:                                               ; preds = %48, %45
  store i32 0, ptr %4, align 4
  store i32 1, ptr %9, align 4
  br label %52

52:                                               ; preds = %51, %39, %28, %22, %18
  call void @llvm.lifetime.end.p0(i64 8, ptr %8) #15
  %53 = load i32, ptr %4, align 4
  ret i32 %53
}

; Function Attrs: nounwind uwtable
define internal i32 @var_find_by_name(ptr noundef %0, ptr noundef %1, i1 noundef zeroext %2) #0 {
  %4 = alloca i32, align 4
  %5 = alloca ptr, align 8
  %6 = alloca ptr, align 8
  %7 = alloca i8, align 1
  %8 = alloca ptr, align 8
  %9 = alloca ptr, align 8
  %10 = alloca i32, align 4
  %11 = alloca i32, align 4
  store ptr %0, ptr %5, align 8, !tbaa !47
  store ptr %1, ptr %6, align 8, !tbaa !85
  %12 = zext i1 %2 to i8
  store i8 %12, ptr %7, align 1, !tbaa !54
  call void @llvm.lifetime.start.p0(i64 8, ptr %8) #15
  store ptr null, ptr %8, align 8, !tbaa !3
  call void @llvm.lifetime.start.p0(i64 8, ptr %9) #15
  call void @llvm.lifetime.start.p0(i64 4, ptr %10) #15
  %13 = load ptr, ptr %5, align 8, !tbaa !47
  %14 = load ptr, ptr %5, align 8, !tbaa !47
  %15 = call i64 @strlen(ptr noundef %14) #16
  %16 = call i32 @pmix_hash_table_get_value_ptr(ptr noundef @pmix_mca_base_var_index_hash, ptr noundef %13, i64 noundef %15, ptr noundef %9)
  store i32 %16, ptr %10, align 4, !tbaa !18
  %17 = load i32, ptr %10, align 4, !tbaa !18
  %18 = icmp ne i32 0, %17
  br i1 %18, label %19, label %21

19:                                               ; preds = %3
  %20 = load i32, ptr %10, align 4, !tbaa !18
  store i32 %20, ptr %4, align 4
  store i32 1, ptr %11, align 4
  br label %44

21:                                               ; preds = %3
  %22 = load ptr, ptr %9, align 8, !tbaa !65
  %23 = ptrtoint ptr %22 to i64
  %24 = trunc i64 %23 to i32
  %25 = call i32 @var_get(i32 noundef %24, ptr noundef %8, i1 noundef zeroext false)
  %26 = load i8, ptr %7, align 1, !tbaa !54, !range !30, !noundef !31
  %27 = trunc i8 %26 to i1
  br i1 %27, label %38, label %28

28:                                               ; preds = %21
  %29 = load ptr, ptr %8, align 8, !tbaa !3
  %30 = icmp ne ptr %29, null
  br i1 %30, label %31, label %43

31:                                               ; preds = %28
  %32 = load ptr, ptr %8, align 8, !tbaa !3
  %33 = getelementptr inbounds %struct.pmix_mca_base_var_t, ptr %32, i64 0
  %34 = getelementptr inbounds nuw %struct.pmix_mca_base_var_t, ptr %33, i32 0, i32 9
  %35 = load i32, ptr %34, align 8, !tbaa !71
  %36 = and i32 %35, 65536
  %37 = icmp ne i32 %36, 0
  br i1 %37, label %38, label %43

38:                                               ; preds = %31, %21
  %39 = load ptr, ptr %9, align 8, !tbaa !65
  %40 = ptrtoint ptr %39 to i64
  %41 = trunc i64 %40 to i32
  %42 = load ptr, ptr %6, align 8, !tbaa !85
  store i32 %41, ptr %42, align 4, !tbaa !18
  store i32 0, ptr %4, align 4
  store i32 1, ptr %11, align 4
  br label %44

43:                                               ; preds = %31, %28
  store i32 -46, ptr %4, align 4
  store i32 1, ptr %11, align 4
  br label %44

44:                                               ; preds = %43, %38, %19
  call void @llvm.lifetime.end.p0(i64 4, ptr %10) #15
  call void @llvm.lifetime.end.p0(i64 8, ptr %9) #15
  call void @llvm.lifetime.end.p0(i64 8, ptr %8) #15
  %45 = load i32, ptr %4, align 4
  ret i32 %45
}

; Function Attrs: nounwind uwtable
define i32 @pmix_mca_base_var_generate_full_name4(ptr noundef %0, ptr noundef %1, ptr noundef %2, ptr noundef %3, ptr noundef %4) #0 {
  %6 = alloca i32, align 4
  %7 = alloca ptr, align 8
  %8 = alloca ptr, align 8
  %9 = alloca ptr, align 8
  %10 = alloca ptr, align 8
  %11 = alloca ptr, align 8
  %12 = alloca [4 x ptr], align 16
  %13 = alloca ptr, align 8
  %14 = alloca ptr, align 8
  %15 = alloca i64, align 8
  %16 = alloca i64, align 8
  %17 = alloca i32, align 4
  store ptr %0, ptr %7, align 8, !tbaa !47
  store ptr %1, ptr %8, align 8, !tbaa !47
  store ptr %2, ptr %9, align 8, !tbaa !47
  store ptr %3, ptr %10, align 8, !tbaa !47
  store ptr %4, ptr %11, align 8, !tbaa !48
  call void @llvm.lifetime.start.p0(i64 32, ptr %12) #15
  %18 = load ptr, ptr %7, align 8, !tbaa !47
  store ptr %18, ptr %12, align 8, !tbaa !47
  %19 = getelementptr inbounds ptr, ptr %12, i64 1
  %20 = load ptr, ptr %8, align 8, !tbaa !47
  store ptr %20, ptr %19, align 8, !tbaa !47
  %21 = getelementptr inbounds ptr, ptr %12, i64 2
  %22 = load ptr, ptr %9, align 8, !tbaa !47
  store ptr %22, ptr %21, align 8, !tbaa !47
  %23 = getelementptr inbounds ptr, ptr %12, i64 3
  %24 = load ptr, ptr %10, align 8, !tbaa !47
  store ptr %24, ptr %23, align 8, !tbaa !47
  call void @llvm.lifetime.start.p0(i64 8, ptr %13) #15
  call void @llvm.lifetime.start.p0(i64 8, ptr %14) #15
  call void @llvm.lifetime.start.p0(i64 8, ptr %15) #15
  call void @llvm.lifetime.start.p0(i64 8, ptr %16) #15
  %25 = load ptr, ptr %11, align 8, !tbaa !48
  store ptr null, ptr %25, align 8, !tbaa !47
  store i64 0, ptr %15, align 8, !tbaa !50
  store i64 0, ptr %16, align 8, !tbaa !50
  br label %26

26:                                               ; preds = %43, %5
  %27 = load i64, ptr %15, align 8, !tbaa !50
  %28 = icmp ult i64 %27, 4
  br i1 %28, label %29, label %46

29:                                               ; preds = %26
  %30 = load i64, ptr %15, align 8, !tbaa !50
  %31 = getelementptr inbounds nuw [4 x ptr], ptr %12, i64 0, i64 %30
  %32 = load ptr, ptr %31, align 8, !tbaa !47
  %33 = icmp ne ptr null, %32
  br i1 %33, label %34, label %42

34:                                               ; preds = %29
  %35 = load i64, ptr %15, align 8, !tbaa !50
  %36 = getelementptr inbounds nuw [4 x ptr], ptr %12, i64 0, i64 %35
  %37 = load ptr, ptr %36, align 8, !tbaa !47
  %38 = call i64 @strlen(ptr noundef %37) #16
  %39 = add i64 %38, 1
  %40 = load i64, ptr %16, align 8, !tbaa !50
  %41 = add i64 %40, %39
  store i64 %41, ptr %16, align 8, !tbaa !50
  br label %42

42:                                               ; preds = %34, %29
  br label %43

43:                                               ; preds = %42
  %44 = load i64, ptr %15, align 8, !tbaa !50
  %45 = add i64 %44, 1
  store i64 %45, ptr %15, align 8, !tbaa !50
  br label %26, !llvm.loop !51

46:                                               ; preds = %26
  %47 = load i64, ptr %16, align 8, !tbaa !50
  %48 = call noalias ptr @calloc(i64 noundef 1, i64 noundef %47) #17
  store ptr %48, ptr %13, align 8, !tbaa !47
  %49 = load ptr, ptr %13, align 8, !tbaa !47
  %50 = icmp eq ptr null, %49
  br i1 %50, label %51, label %52

51:                                               ; preds = %46
  store i32 -29, ptr %6, align 4
  store i32 1, ptr %17, align 4
  br label %95

52:                                               ; preds = %46
  store i64 0, ptr %15, align 8, !tbaa !50
  %53 = load ptr, ptr %13, align 8, !tbaa !47
  store ptr %53, ptr %14, align 8, !tbaa !47
  br label %54

54:                                               ; preds = %89, %52
  %55 = load i64, ptr %15, align 8, !tbaa !50
  %56 = icmp ult i64 %55, 4
  br i1 %56, label %57, label %92

57:                                               ; preds = %54
  %58 = load i64, ptr %15, align 8, !tbaa !50
  %59 = getelementptr inbounds nuw [4 x ptr], ptr %12, i64 0, i64 %58
  %60 = load ptr, ptr %59, align 8, !tbaa !47
  %61 = icmp ne ptr null, %60
  br i1 %61, label %62, label %88

62:                                               ; preds = %57
  %63 = load ptr, ptr %13, align 8, !tbaa !47
  %64 = load ptr, ptr %14, align 8, !tbaa !47
  %65 = icmp ne ptr %63, %64
  br i1 %65, label %66, label %69

66:                                               ; preds = %62
  %67 = load ptr, ptr %14, align 8, !tbaa !47
  %68 = getelementptr inbounds nuw i8, ptr %67, i32 1
  store ptr %68, ptr %14, align 8, !tbaa !47
  store i8 95, ptr %67, align 1, !tbaa !24
  br label %69

69:                                               ; preds = %66, %62
  %70 = load ptr, ptr %13, align 8, !tbaa !47
  %71 = load i64, ptr %15, align 8, !tbaa !50
  %72 = getelementptr inbounds nuw [4 x ptr], ptr %12, i64 0, i64 %71
  %73 = load ptr, ptr %72, align 8, !tbaa !47
  %74 = load i64, ptr %16, align 8, !tbaa !50
  %75 = load ptr, ptr %14, align 8, !tbaa !47
  %76 = load ptr, ptr %13, align 8, !tbaa !47
  %77 = ptrtoint ptr %75 to i64
  %78 = ptrtoint ptr %76 to i64
  %79 = sub i64 %77, %78
  %80 = sub i64 %74, %79
  %81 = call ptr @strncat(ptr noundef %70, ptr noundef %73, i64 noundef %80) #15
  %82 = load i64, ptr %15, align 8, !tbaa !50
  %83 = getelementptr inbounds nuw [4 x ptr], ptr %12, i64 0, i64 %82
  %84 = load ptr, ptr %83, align 8, !tbaa !47
  %85 = call i64 @strlen(ptr noundef %84) #16
  %86 = load ptr, ptr %14, align 8, !tbaa !47
  %87 = getelementptr inbounds nuw i8, ptr %86, i64 %85
  store ptr %87, ptr %14, align 8, !tbaa !47
  br label %88

88:                                               ; preds = %69, %57
  br label %89

89:                                               ; preds = %88
  %90 = load i64, ptr %15, align 8, !tbaa !50
  %91 = add i64 %90, 1
  store i64 %91, ptr %15, align 8, !tbaa !50
  br label %54, !llvm.loop !53

92:                                               ; preds = %54
  %93 = load ptr, ptr %13, align 8, !tbaa !47
  %94 = load ptr, ptr %11, align 8, !tbaa !48
  store ptr %93, ptr %94, align 8, !tbaa !47
  store i32 0, ptr %6, align 4
  store i32 1, ptr %17, align 4
  br label %95

95:                                               ; preds = %92, %51
  call void @llvm.lifetime.end.p0(i64 8, ptr %16) #15
  call void @llvm.lifetime.end.p0(i64 8, ptr %15) #15
  call void @llvm.lifetime.end.p0(i64 8, ptr %14) #15
  call void @llvm.lifetime.end.p0(i64 8, ptr %13) #15
  call void @llvm.lifetime.end.p0(i64 32, ptr %12) #15
  %96 = load i32, ptr %6, align 4
  ret i32 %96
}

; Function Attrs: nounwind uwtable
define internal i32 @var_find(ptr noundef %0, ptr noundef %1, ptr noundef %2, ptr noundef %3, i1 noundef zeroext %4) #0 {
  %6 = alloca i32, align 4
  %7 = alloca ptr, align 8
  %8 = alloca ptr, align 8
  %9 = alloca ptr, align 8
  %10 = alloca ptr, align 8
  %11 = alloca i8, align 1
  %12 = alloca ptr, align 8
  %13 = alloca i32, align 4
  %14 = alloca i32, align 4
  %15 = alloca i32, align 4
  store ptr %0, ptr %7, align 8, !tbaa !47
  store ptr %1, ptr %8, align 8, !tbaa !47
  store ptr %2, ptr %9, align 8, !tbaa !47
  store ptr %3, ptr %10, align 8, !tbaa !47
  %16 = zext i1 %4 to i8
  store i8 %16, ptr %11, align 1, !tbaa !54
  call void @llvm.lifetime.start.p0(i64 8, ptr %12) #15
  call void @llvm.lifetime.start.p0(i64 4, ptr %13) #15
  call void @llvm.lifetime.start.p0(i64 4, ptr %14) #15
  %17 = load ptr, ptr %8, align 8, !tbaa !47
  %18 = load ptr, ptr %9, align 8, !tbaa !47
  %19 = load ptr, ptr %10, align 8, !tbaa !47
  %20 = call i32 @pmix_mca_base_var_generate_full_name4(ptr noundef null, ptr noundef %17, ptr noundef %18, ptr noundef %19, ptr noundef %12)
  store i32 %20, ptr %13, align 4, !tbaa !18
  %21 = load i32, ptr %13, align 4, !tbaa !18
  %22 = icmp ne i32 0, %21
  br i1 %22, label %23, label %24

23:                                               ; preds = %5
  store i32 -1, ptr %6, align 4
  store i32 1, ptr %15, align 4
  br label %36

24:                                               ; preds = %5
  %25 = load ptr, ptr %12, align 8, !tbaa !47
  %26 = load i8, ptr %11, align 1, !tbaa !54, !range !30, !noundef !31
  %27 = trunc i8 %26 to i1
  %28 = call i32 @var_find_by_name(ptr noundef %25, ptr noundef %14, i1 noundef zeroext %27)
  store i32 %28, ptr %13, align 4, !tbaa !18
  %29 = load ptr, ptr %12, align 8, !tbaa !47
  call void @free(ptr noundef %29) #15
  %30 = load i32, ptr %13, align 4, !tbaa !18
  %31 = icmp ne i32 0, %30
  br i1 %31, label %32, label %34

32:                                               ; preds = %24
  %33 = load i32, ptr %13, align 4, !tbaa !18
  store i32 %33, ptr %6, align 4
  store i32 1, ptr %15, align 4
  br label %36

34:                                               ; preds = %24
  %35 = load i32, ptr %14, align 4, !tbaa !18
  store i32 %35, ptr %6, align 4
  store i32 1, ptr %15, align 4
  br label %36

36:                                               ; preds = %34, %32, %23
  call void @llvm.lifetime.end.p0(i64 4, ptr %14) #15
  call void @llvm.lifetime.end.p0(i64 4, ptr %13) #15
  call void @llvm.lifetime.end.p0(i64 8, ptr %12) #15
  %37 = load i32, ptr %6, align 4
  ret i32 %37
}