; Function Attrs: nounwind uwtable
define internal fastcc i32 @var_find(ptr noundef %0, ptr noundef %1, ptr noundef %2, i1 noundef zeroext %3) unnamed_addr #0 {
  %5 = alloca ptr, align 8
  %6 = alloca [4 x ptr], align 16
  call void @llvm.lifetime.start.p0(i64 32, ptr nonnull %6) #25
  store ptr null, ptr %6, align 16, !tbaa !51
  %7 = getelementptr inbounds nuw i8, ptr %6, i64 8
  store ptr %0, ptr %7, align 8, !tbaa !51
  %8 = getelementptr inbounds nuw i8, ptr %6, i64 16
  store ptr %1, ptr %8, align 16, !tbaa !51
  %9 = getelementptr inbounds nuw i8, ptr %6, i64 24
  store ptr %2, ptr %9, align 8, !tbaa !51
  br label %10

10:                                               ; preds = %17, %4
  %.039.i = phi i64 [ 0, %4 ], [ %.1.i, %17 ]
  %.02838.i = phi i64 [ 0, %4 ], [ %18, %17 ]
  %11 = getelementptr inbounds nuw [4 x ptr], ptr %6, i64 0, i64 %.02838.i
  %12 = load ptr, ptr %11, align 8, !tbaa !51
  %.not36.i = icmp eq ptr %12, null
  br i1 %.not36.i, label %17, label %13

13:                                               ; preds = %10
  %14 = tail call i64 @strlen(ptr noundef nonnull dereferenceable(1) %12) #30
  %15 = add i64 %.039.i, 1
  %16 = add i64 %15, %14
  br label %17

17:                                               ; preds = %13, %10
  %.1.i = phi i64 [ %16, %13 ], [ %.039.i, %10 ]
  %18 = add nuw nsw i64 %.02838.i, 1
  %exitcond.not.i = icmp eq i64 %18, 4
  br i1 %exitcond.not.i, label %19, label %10, !llvm.loop !52

19:                                               ; preds = %17
  %20 = tail call noalias ptr @calloc(i64 noundef 1, i64 noundef %.1.i) #31
  %21 = icmp eq ptr %20, null
  br i1 %21, label %pmix_mca_base_var_generate_full_name4.exit, label %.preheader.i

.preheader.i:                                     ; preds = %19
  %22 = ptrtoint ptr %20 to i64
  %.neg.i = add i64 %.1.i, %22
  br label %23

23:                                               ; preds = %35, %.preheader.i
  %.12941.i = phi i64 [ 0, %.preheader.i ], [ %36, %35 ]
  %.03040.i = phi ptr [ %20, %.preheader.i ], [ %.2.i, %35 ]
  %24 = getelementptr inbounds nuw [4 x ptr], ptr %6, i64 0, i64 %.12941.i
  %25 = load ptr, ptr %24, align 8, !tbaa !51
  %.not.i = icmp eq ptr %25, null
  br i1 %.not.i, label %35, label %26

26:                                               ; preds = %23
  %.not35.i = icmp eq ptr %20, %.03040.i
  br i1 %.not35.i, label %29, label %27

27:                                               ; preds = %26
  %28 = getelementptr inbounds nuw i8, ptr %.03040.i, i64 1
  store i8 95, ptr %.03040.i, align 1, !tbaa !30
  %.pre.i = load ptr, ptr %24, align 8, !tbaa !51
  %.pre43.i = ptrtoint ptr %28 to i64
  br label %29

29:                                               ; preds = %27, %26
  %.pre-phi.i = phi i64 [ %.pre43.i, %27 ], [ %22, %26 ]
  %30 = phi ptr [ %.pre.i, %27 ], [ %25, %26 ]
  %.131.i = phi ptr [ %28, %27 ], [ %20, %26 ]
  %31 = sub i64 %.neg.i, %.pre-phi.i
  %32 = tail call ptr @strncat(ptr noundef nonnull dereferenceable(1) %20, ptr noundef %30, i64 noundef %31) #25
  %33 = tail call i64 @strlen(ptr noundef nonnull dereferenceable(1) %30) #30
  %34 = getelementptr inbounds nuw i8, ptr %.131.i, i64 %33
  br label %35

35:                                               ; preds = %29, %23
  %.2.i = phi ptr [ %34, %29 ], [ %.03040.i, %23 ]
  %36 = add nuw nsw i64 %.12941.i, 1
  %exitcond42.not.i = icmp eq i64 %36, 4
  br i1 %exitcond42.not.i, label %37, label %23, !llvm.loop !53

pmix_mca_base_var_generate_full_name4.exit:       ; preds = %19
  call void @llvm.lifetime.end.p0(i64 32, ptr nonnull %6) #25
  br label %60

37:                                               ; preds = %35
  call void @llvm.lifetime.end.p0(i64 32, ptr nonnull %6) #25
  call void @llvm.lifetime.start.p0(i64 8, ptr nonnull %5) #25
  %38 = tail call i64 @strlen(ptr noundef nonnull dereferenceable(1) %20) #30
  %39 = call i32 @pmix_hash_table_get_value_ptr(ptr noundef nonnull @pmix_mca_base_var_index_hash, ptr noundef nonnull %20, i64 noundef %38, ptr noundef nonnull %5) #25
  %.not.i9 = icmp eq i32 %39, 0
  br i1 %.not.i9, label %40, label %var_find_by_name.exit.thread

40:                                               ; preds = %37
  %41 = load ptr, ptr %5, align 8, !tbaa !22
  %42 = ptrtoint ptr %41 to i64
  %43 = trunc i64 %42 to i32
  %44 = load i8, ptr @pmix_mca_base_var_initialized, align 1, !tbaa !54, !range !36, !noundef !37
  %45 = trunc nuw i8 %44 to i1
  br i1 %45, label %46, label %var_get.exit.i

46:                                               ; preds = %40
  %47 = icmp slt i32 %43, 0
  %48 = load i32, ptr getelementptr inbounds nuw (i8, ptr @pmix_mca_base_vars, i64 128), align 8
  %49 = icmp sle i32 %48, %43
  %or.cond.i.i = select i1 %47, i1 true, i1 %49
  br i1 %or.cond.i.i, label %var_get.exit.i, label %pmix_pointer_array_get_item.exit.i.i, !prof !63

pmix_pointer_array_get_item.exit.i.i:             ; preds = %46
  %50 = load ptr, ptr getelementptr inbounds nuw (i8, ptr @pmix_mca_base_vars, i64 152), align 8, !tbaa !58
  %51 = and i64 %42, 2147483647
  %52 = getelementptr inbounds nuw ptr, ptr %50, i64 %51
  %53 = load ptr, ptr %52, align 8, !tbaa !22
  br label %var_get.exit.i

var_get.exit.i:                                   ; preds = %pmix_pointer_array_get_item.exit.i.i, %46, %40
  %.010.i = phi ptr [ null, %46 ], [ null, %40 ], [ %53, %pmix_pointer_array_get_item.exit.i.i ]
  br i1 %3, label %59, label %54

54:                                               ; preds = %var_get.exit.i
  %.not8.i = icmp eq ptr %.010.i, null
  br i1 %.not8.i, label %var_find_by_name.exit.thread, label %55

55:                                               ; preds = %54
  %56 = getelementptr inbounds nuw i8, ptr %.010.i, i64 320
  %57 = load i32, ptr %56, align 8, !tbaa !61
  %58 = and i32 %57, 65536
  %.not9.i = icmp eq i32 %58, 0
  br i1 %.not9.i, label %var_find_by_name.exit.thread, label %59

var_find_by_name.exit.thread:                     ; preds = %37, %55, %54
  %.0.i.ph = phi i32 [ -46, %54 ], [ -46, %55 ], [ %39, %37 ]
  call void @llvm.lifetime.end.p0(i64 8, ptr nonnull %5) #25
  call void @free(ptr noundef nonnull %20) #25
  br label %60

59:                                               ; preds = %55, %var_get.exit.i
  call void @llvm.lifetime.end.p0(i64 8, ptr nonnull %5) #25
  call void @free(ptr noundef nonnull %20) #25
  br label %60

60:                                               ; preds = %59, %var_find_by_name.exit.thread, %pmix_mca_base_var_generate_full_name4.exit
  %.0 = phi i32 [ -1, %pmix_mca_base_var_generate_full_name4.exit ], [ %43, %59 ], [ %.0.i.ph, %var_find_by_name.exit.thread ]
  ret i32 %.0
}